target datalayout = "e-m:e-p270:32:32-p271:32:32-p272:64:64-i64:64-i128:128-f80:128-n8:16:32:64-S128"
target triple = "x86_64-unknown-linux-gnu"

@log_per_thread = internal global i8 0, align 1
@.str = private unnamed_addr constant [19 x i8] c"../qemu/util/log.c\00", align 1
@__func__.qemu_log_enabled = private unnamed_addr constant [17 x i8] c"qemu_log_enabled\00", align 1
@global_file = internal global ptr null, align 8

; Function Attrs: nounwind sspstrong uwtable
define dso_local zeroext i1 @qemu_log_enabled() #0 {
entry:
  %tmp = alloca ptr, align 8
  %atomic-temp = alloca ptr, align 8
  %0 = load i8, ptr @log_per_thread, align 1
  %tobool = trunc i8 %0 to i1
  br i1 %tobool, label %lor.end, label %lor.rhs

lor.rhs:                                          ; preds = %entry
  br label %while.cond

while.cond:                                       ; preds = %do.end, %lor.rhs
  br i1 false, label %while.body, label %while.end

while.body:                                       ; preds = %while.cond
  br label %do.body

do.body:                                          ; preds = %while.body
  call void @g_assertion_message_expr(ptr noundef null, ptr noundef @.str, i32 noundef 54, ptr noundef @__func__.qemu_log_enabled, ptr noundef null) #10
  unreachable

do.end:                                           ; No predecessors!
  br label %while.cond

while.end:                                        ; preds = %while.cond
  %1 = load atomic i64, ptr @global_file monotonic, align 8
  store i64 %1, ptr %atomic-temp, align 8
  %2 = load ptr, ptr %atomic-temp, align 8
  store ptr %2, ptr %tmp, align 8
  %3 = load ptr, ptr %tmp, align 8
  %cmp = icmp ne ptr %3, null
  br label %lor.end

lor.end:                                          ; preds = %while.end, %entry
  %4 = phi i1 [ true, %entry ], [ %cmp, %while.end ]
  ret i1 %4
}