; Function Attrs: mustprogress nofree norecurse nounwind sspstrong willreturn memory(readwrite, argmem: none, inaccessiblemem: none) uwtable
define dso_local zeroext i1 @qemu_log_enabled() local_unnamed_addr #0 {
entry:
  %.b1 = load i1, ptr @log_per_thread, align 1
  br i1 %.b1, label %lor.end, label %while.end

while.end:                                        ; preds = %entry
  %0 = load atomic i64, ptr @global_file monotonic, align 8
  %cmp = icmp ne i64 %0, 0
  br label %lor.end

lor.end:                                          ; preds = %while.end, %entry
  %1 = phi i1 [ true, %entry ], [ %cmp, %while.end ]
  ret i1 %1
}